target datalayout = "e-m:e-p270:32:32-p271:32:32-p272:64:64-i64:64-i128:128-f80:128-n8:16:32:64-S128"
target triple = "x86_64-pc-linux-gnu"

%"struct.cv::dnn::FastGemmOpt" = type { i8, i8, i8, i8, i8 }

; Function Attrs: inlinehint mustprogress nounwind uwtable
define linkonce_odr void @_ZSt4swapIiENSt9enable_ifIXsr6__and_ISt6__not_ISt15__is_tuple_likeIT_EESt21is_move_constructibleIS3_ESt18is_move_assignableIS3_EEE5valueEvE4typeERS3_SC_(ptr noundef nonnull align 4 dereferenceable(4) %0, ptr noundef nonnull align 4 dereferenceable(4) %1) #7 comdat {
  %3 = alloca ptr, align 8
  %4 = alloca ptr, align 8
  %5 = alloca i32, align 4
  store ptr %0, ptr %3, align 8, !tbaa !13
  store ptr %1, ptr %4, align 8, !tbaa !13
  call void @llvm.lifetime.start.p0(i64 4, ptr %5) #3
  %6 = load ptr, ptr %3, align 8, !tbaa !13
  %7 = load i32, ptr %6, align 4, !tbaa !3
  store i32 %7, ptr %5, align 4, !tbaa !3
  %8 = load ptr, ptr %4, align 8, !tbaa !13
  %9 = load i32, ptr %8, align 4, !tbaa !3
  %10 = load ptr, ptr %3, align 8, !tbaa !13
  store i32 %9, ptr %10, align 4, !tbaa !3
  %11 = load i32, ptr %5, align 4, !tbaa !3
  %12 = load ptr, ptr %4, align 8, !tbaa !13
  store i32 %11, ptr %12, align 4, !tbaa !3
  call void @llvm.lifetime.end.p0(i64 4, ptr %5) #3
  ret void
}

; Function Attrs: mustprogress uwtable
define hidden void @_ZN2cv3dnn8fastGemmEbiiifPKfiS2_fPfiRNS0_11FastGemmOptE(i1 noundef zeroext %0, i32 noundef %1, i32 noundef %2, i32 noundef %3, float noundef %4, ptr noundef %5, i32 noundef %6, ptr noundef %7, float noundef %8, ptr noundef %9, i32 noundef %10, ptr noundef nonnull align 1 dereferenceable(5) %11) #6 {
  %13 = alloca i8, align 1
  %14 = alloca i32, align 4
  %15 = alloca i32, align 4
  %16 = alloca i32, align 4
  %17 = alloca float, align 4
  %18 = alloca ptr, align 8
  %19 = alloca i32, align 4
  %20 = alloca ptr, align 8
  %21 = alloca float, align 4
  %22 = alloca ptr, align 8
  %23 = alloca i32, align 4
  %24 = alloca ptr, align 8
  %25 = alloca ptr, align 8
  %26 = alloca ptr, align 8
  %27 = alloca ptr, align 8
  %28 = alloca i32, align 4
  %29 = alloca i32, align 4
  %30 = zext i1 %0 to i8
  store i8 %30, ptr %13, align 1, !tbaa !24
  store i32 %1, ptr %14, align 4, !tbaa !3
  store i32 %2, ptr %15, align 4, !tbaa !3
  store i32 %3, ptr %16, align 4, !tbaa !3
  store float %4, ptr %17, align 4, !tbaa !18
  store ptr %5, ptr %18, align 8, !tbaa !16
  store i32 %6, ptr %19, align 4, !tbaa !3
  store ptr %7, ptr %20, align 8, !tbaa !16
  store float %8, ptr %21, align 4, !tbaa !18
  store ptr %9, ptr %22, align 8, !tbaa !16
  store i32 %10, ptr %23, align 4, !tbaa !3
  store ptr %11, ptr %24, align 8, !tbaa !105
  call void @llvm.lifetime.start.p0(i64 8, ptr %25) #3
  %31 = load ptr, ptr %18, align 8, !tbaa !16
  store ptr %31, ptr %25, align 8, !tbaa !7
  call void @llvm.lifetime.start.p0(i64 8, ptr %26) #3
  %32 = load ptr, ptr %20, align 8, !tbaa !16
  store ptr %32, ptr %26, align 8, !tbaa !7
  call void @llvm.lifetime.start.p0(i64 8, ptr %27) #3
  %33 = load ptr, ptr %22, align 8, !tbaa !16
  store ptr %33, ptr %27, align 8, !tbaa !7
  call void @llvm.lifetime.start.p0(i64 4, ptr %28) #3
  %34 = load i32, ptr %19, align 4, !tbaa !3
  store i32 %34, ptr %28, align 4, !tbaa !3
  call void @llvm.lifetime.start.p0(i64 4, ptr %29) #3
  store i32 1, ptr %29, align 4, !tbaa !3
  %35 = load i8, ptr %13, align 1, !tbaa !24, !range !35, !noundef !36
  %36 = trunc i8 %35 to i1
  br i1 %36, label %37, label %38

37:                                               ; preds = %12
  call void @_ZSt4swapIiENSt9enable_ifIXsr6__and_ISt6__not_ISt15__is_tuple_likeIT_EESt21is_move_constructibleIS3_ESt18is_move_assignableIS3_EEE5valueEvE4typeERS3_SC_(ptr noundef nonnull align 4 dereferenceable(4) %28, ptr noundef nonnull align 4 dereferenceable(4) %29) #3
  br label %38

38:                                               ; preds = %37, %12
  %39 = load i32, ptr %14, align 4, !tbaa !3
  %40 = load i32, ptr %15, align 4, !tbaa !3
  %41 = load i32, ptr %16, align 4, !tbaa !3
  %42 = load float, ptr %17, align 4, !tbaa !18
  %43 = load ptr, ptr %25, align 8, !tbaa !7
  %44 = load i32, ptr %28, align 4, !tbaa !3
  %45 = load i32, ptr %29, align 4, !tbaa !3
  %46 = load ptr, ptr %26, align 8, !tbaa !7
  %47 = load float, ptr %21, align 4, !tbaa !18
  %48 = load ptr, ptr %27, align 8, !tbaa !7
  %49 = load i32, ptr %23, align 4, !tbaa !3
  %50 = load ptr, ptr %24, align 8, !tbaa !105
  %51 = getelementptr inbounds nuw %"struct.cv::dnn::FastGemmOpt", ptr %50, i32 0, i32 4
  %52 = load i8, ptr %51, align 1, !tbaa !130, !range !35, !noundef !36
  %53 = trunc i8 %52 to i1
  call void @_ZN2cv3dnn12cpu_baseline14fastGemmKernelEiiifPKciiS3_fPciib(i32 noundef %39, i32 noundef %40, i32 noundef %41, float noundef %42, ptr noundef %43, i32 noundef %44, i32 noundef %45, ptr noundef %46, float noundef %47, ptr noundef %48, i32 noundef %49, i32 noundef 4, i1 noundef zeroext %53)
  call void @llvm.lifetime.end.p0(i64 4, ptr %29) #3
  call void @llvm.lifetime.end.p0(i64 4, ptr %28) #3
  call void @llvm.lifetime.end.p0(i64 8, ptr %27) #3
  call void @llvm.lifetime.end.p0(i64 8, ptr %26) #3
  call void @llvm.lifetime.end.p0(i64 8, ptr %25) #3
  ret void
}