; Function Attrs: mustprogress uwtable
define hidden void @_ZN2cv3dnn8fastGemmEbiiifPKfiS2_fPfiRNS0_11FastGemmOptE(i1 noundef zeroext %0, i32 noundef %1, i32 noundef %2, i32 noundef %3, float noundef %4, ptr noundef %5, i32 noundef %6, ptr noundef %7, float noundef %8, ptr noundef %9, i32 noundef %10, ptr noundef nonnull readonly align 1 captures(none) dereferenceable(5) %11) local_unnamed_addr #6 {
  %spec.select = select i1 %0, i32 1, i32 %6
  %spec.select18 = select i1 %0, i32 %6, i32 1
  %13 = getelementptr inbounds nuw i8, ptr %11, i64 4
  %14 = load i8, ptr %13, align 1, !tbaa !129, !range !47, !noundef !48
  %15 = trunc nuw i8 %14 to i1
  tail call void @_ZN2cv3dnn12cpu_baseline14fastGemmKernelEiiifPKciiS3_fPciib(i32 noundef %1, i32 noundef %2, i32 noundef %3, float noundef %4, ptr noundef %5, i32 noundef %spec.select, i32 noundef %spec.select18, ptr noundef %7, float noundef %8, ptr noundef %9, i32 noundef %10, i32 noundef 4, i1 noundef zeroext %15)
  ret void
}